target datalayout = "e-m:e-p270:32:32-p271:32:32-p272:64:64-i64:64-i128:128-f80:128-n8:16:32:64-S128"
target triple = "x86_64-pc-linux-gnu"

; Function Attrs: nounwind uwtable
define internal void @deflate(ptr noundef %0, ptr noundef %1, i32 noundef %2, i32 noundef %3, ptr noundef %4, i32 noundef %5, i32 noundef %6) #1 {
  %8 = alloca ptr, align 8
  %9 = alloca ptr, align 8
  %10 = alloca i32, align 4
  %11 = alloca i32, align 4
  %12 = alloca ptr, align 8
  %13 = alloca i32, align 4
  %14 = alloca i32, align 4
  %15 = alloca i32, align 4
  %16 = alloca i32, align 4
  %17 = alloca i32, align 4
  %18 = alloca i32, align 4
  store ptr %0, ptr %8, align 8, !tbaa !64
  store ptr %1, ptr %9, align 8, !tbaa !64
  store i32 %2, ptr %10, align 4, !tbaa !42
  store i32 %3, ptr %11, align 4, !tbaa !42
  store ptr %4, ptr %12, align 8, !tbaa !69
  store i32 %5, ptr %13, align 4, !tbaa !42
  store i32 %6, ptr %14, align 4, !tbaa !42
  call void @llvm.lifetime.start.p0(i64 4, ptr %15) #5
  call void @llvm.lifetime.start.p0(i64 4, ptr %16) #5
  store i32 0, ptr %15, align 4, !tbaa !42
  br label %19

19:                                               ; preds = %118, %7
  %20 = load i32, ptr %15, align 4, !tbaa !42
  %21 = load i32, ptr %10, align 4, !tbaa !42
  %22 = icmp slt i32 %20, %21
  br i1 %22, label %23, label %121

23:                                               ; preds = %19
  call void @llvm.lifetime.start.p0(i64 4, ptr %17) #5
  store i32 0, ptr %17, align 4, !tbaa !42
  call void @llvm.lifetime.start.p0(i64 4, ptr %18) #5
  %24 = load ptr, ptr %9, align 8, !tbaa !64
  %25 = load i32, ptr %15, align 4, !tbaa !42
  %26 = sext i32 %25 to i64
  %27 = getelementptr inbounds i8, ptr %24, i64 %26
  %28 = load i8, ptr %27, align 1, !tbaa !73
  %29 = zext i8 %28 to i32
  %30 = load i32, ptr %11, align 4, !tbaa !42
  %31 = sub nsw i32 %29, %30
  %32 = icmp sgt i32 %31, 0
  br i1 %32, label %33, label %42

33:                                               ; preds = %23
  %34 = load ptr, ptr %9, align 8, !tbaa !64
  %35 = load i32, ptr %15, align 4, !tbaa !42
  %36 = sext i32 %35 to i64
  %37 = getelementptr inbounds i8, ptr %34, i64 %36
  %38 = load i8, ptr %37, align 1, !tbaa !73
  %39 = zext i8 %38 to i32
  %40 = load i32, ptr %11, align 4, !tbaa !42
  %41 = sub nsw i32 %39, %40
  br label %43

42:                                               ; preds = %23
  br label %43

43:                                               ; preds = %42, %33
  %44 = phi i32 [ %41, %33 ], [ 0, %42 ]
  store i32 %44, ptr %18, align 4, !tbaa !42
  store i32 0, ptr %16, align 4, !tbaa !42
  br label %45

45:                                               ; preds = %49, %43
  %46 = load i32, ptr %16, align 4, !tbaa !42
  %47 = icmp slt i32 %46, 8
  br i1 %47, label %48, label %63

48:                                               ; preds = %45
  br label %49

49:                                               ; preds = %48
  %50 = load ptr, ptr %12, align 8, !tbaa !69
  %51 = load i32, ptr %16, align 4, !tbaa !42
  %52 = add nsw i32 %51, 1
  store i32 %52, ptr %16, align 4, !tbaa !42
  %53 = sext i32 %51 to i64
  %54 = getelementptr inbounds ptr, ptr %50, i64 %53
  %55 = load ptr, ptr %54, align 8, !tbaa !64
  %56 = load i32, ptr %15, align 4, !tbaa !42
  %57 = sext i32 %56 to i64
  %58 = getelementptr inbounds i8, ptr %55, i64 %57
  %59 = load i8, ptr %58, align 1, !tbaa !73
  %60 = zext i8 %59 to i32
  %61 = load i32, ptr %17, align 4, !tbaa !42
  %62 = add nsw i32 %61, %60
  store i32 %62, ptr %17, align 4, !tbaa !42
  br label %45, !llvm.loop !86

63:                                               ; preds = %45
  %64 = load i32, ptr %17, align 4, !tbaa !42
  %65 = sdiv i32 %64, 8
  %66 = load ptr, ptr %9, align 8, !tbaa !64
  %67 = load i32, ptr %15, align 4, !tbaa !42
  %68 = sext i32 %67 to i64
  %69 = getelementptr inbounds i8, ptr %66, i64 %68
  %70 = load i8, ptr %69, align 1, !tbaa !73
  %71 = zext i8 %70 to i32
  %72 = icmp sgt i32 %65, %71
  br i1 %72, label %73, label %80

73:                                               ; preds = %63
  %74 = load ptr, ptr %9, align 8, !tbaa !64
  %75 = load i32, ptr %15, align 4, !tbaa !42
  %76 = sext i32 %75 to i64
  %77 = getelementptr inbounds i8, ptr %74, i64 %76
  %78 = load i8, ptr %77, align 1, !tbaa !73
  %79 = zext i8 %78 to i32
  br label %83

80:                                               ; preds = %63
  %81 = load i32, ptr %17, align 4, !tbaa !42
  %82 = sdiv i32 %81, 8
  br label %83

83:                                               ; preds = %80, %73
  %84 = phi i32 [ %79, %73 ], [ %82, %80 ]
  %85 = load i32, ptr %18, align 4, !tbaa !42
  %86 = icmp sgt i32 %84, %85
  br i1 %86, label %87, label %109

87:                                               ; preds = %83
  %88 = load i32, ptr %17, align 4, !tbaa !42
  %89 = sdiv i32 %88, 8
  %90 = load ptr, ptr %9, align 8, !tbaa !64
  %91 = load i32, ptr %15, align 4, !tbaa !42
  %92 = sext i32 %91 to i64
  %93 = getelementptr inbounds i8, ptr %90, i64 %92
  %94 = load i8, ptr %93, align 1, !tbaa !73
  %95 = zext i8 %94 to i32
  %96 = icmp sgt i32 %89, %95
  br i1 %96, label %97, label %104

97:                                               ; preds = %87
  %98 = load ptr, ptr %9, align 8, !tbaa !64
  %99 = load i32, ptr %15, align 4, !tbaa !42
  %100 = sext i32 %99 to i64
  %101 = getelementptr inbounds i8, ptr %98, i64 %100
  %102 = load i8, ptr %101, align 1, !tbaa !73
  %103 = zext i8 %102 to i32
  br label %107

104:                                              ; preds = %87
  %105 = load i32, ptr %17, align 4, !tbaa !42
  %106 = sdiv i32 %105, 8
  br label %107

107:                                              ; preds = %104, %97
  %108 = phi i32 [ %103, %97 ], [ %106, %104 ]
  br label %111

109:                                              ; preds = %83
  %110 = load i32, ptr %18, align 4, !tbaa !42
  br label %111

111:                                              ; preds = %109, %107
  %112 = phi i32 [ %108, %107 ], [ %110, %109 ]
  %113 = trunc i32 %112 to i8
  %114 = load ptr, ptr %8, align 8, !tbaa !64
  %115 = load i32, ptr %15, align 4, !tbaa !42
  %116 = sext i32 %115 to i64
  %117 = getelementptr inbounds i8, ptr %114, i64 %116
  store i8 %113, ptr %117, align 1, !tbaa !73
  call void @llvm.lifetime.end.p0(i64 4, ptr %18) #5
  call void @llvm.lifetime.end.p0(i64 4, ptr %17) #5
  br label %118

118:                                              ; preds = %111
  %119 = load i32, ptr %15, align 4, !tbaa !42
  %120 = add nsw i32 %119, 1
  store i32 %120, ptr %15, align 4, !tbaa !42
  br label %19, !llvm.loop !87

121:                                              ; preds = %19
  call void @llvm.lifetime.end.p0(i64 4, ptr %16) #5
  call void @llvm.lifetime.end.p0(i64 4, ptr %15) #5
  ret void
}